target datalayout = "e-m:e-p270:32:32-p271:32:32-p272:64:64-i64:64-i128:128-f80:128-n8:16:32:64-S128"
target triple = "x86_64-pc-linux-gnu"

%struct.jpeg_compress_struct = type { ptr, ptr, ptr, ptr, i32, i32, ptr, i32, i32, i32, i32, double, i32, i32, i32, ptr, [4 x ptr], [4 x ptr], [4 x ptr], [16 x i8], [16 x i8], [16 x i8], i32, ptr, i32, i32, i32, i32, i32, i32, i32, i32, i32, i8, i8, i8, i16, i16, i32, i32, i32, i32, i32, i32, i32, [4 x ptr], i32, i32, i32, [10 x i32], i32, i32, i32, i32, ptr, ptr, ptr, ptr, ptr, ptr, ptr, ptr, ptr, ptr, i32 }
%struct.jpeg_error_mgr = type { ptr, ptr, ptr, ptr, ptr, i32, %union.anon, i32, i64, ptr, i32, ptr, i32, i32 }
%union.anon = type { [8 x i32], [48 x i8] }
%struct.ppm_source_struct = type { %struct.cjpeg_source_struct, ptr, ptr, i64, ptr, i32 }
%struct.cjpeg_source_struct = type { ptr, ptr, ptr, ptr, ptr, ptr, ptr, i32, i32 }

; Function Attrs: nounwind uwtable
define internal i32 @get_word_gray_row(ptr noundef %0, ptr noundef %1) #0 {
  %3 = alloca ptr, align 8
  %4 = alloca ptr, align 8
  %5 = alloca ptr, align 8
  %6 = alloca ptr, align 8
  %7 = alloca ptr, align 8
  %8 = alloca ptr, align 8
  %9 = alloca i32, align 4
  %10 = alloca i32, align 4
  %11 = alloca i32, align 4
  store ptr %0, ptr %3, align 8, !tbaa !4
  store ptr %1, ptr %4, align 8, !tbaa !46
  call void @llvm.lifetime.start.p0(i64 8, ptr %5) #6
  %12 = load ptr, ptr %4, align 8, !tbaa !46
  store ptr %12, ptr %5, align 8, !tbaa !37
  call void @llvm.lifetime.start.p0(i64 8, ptr %6) #6
  call void @llvm.lifetime.start.p0(i64 8, ptr %7) #6
  call void @llvm.lifetime.start.p0(i64 8, ptr %8) #6
  %13 = load ptr, ptr %5, align 8, !tbaa !37
  %14 = getelementptr inbounds nuw %struct.ppm_source_struct, ptr %13, i32 0, i32 4
  %15 = load ptr, ptr %14, align 8, !tbaa !66
  store ptr %15, ptr %8, align 8, !tbaa !73
  call void @llvm.lifetime.start.p0(i64 4, ptr %9) #6
  call void @llvm.lifetime.start.p0(i64 4, ptr %10) #6
  %16 = load ptr, ptr %5, align 8, !tbaa !37
  %17 = getelementptr inbounds nuw %struct.ppm_source_struct, ptr %16, i32 0, i32 5
  %18 = load i32, ptr %17, align 8, !tbaa !53
  store i32 %18, ptr %10, align 4, !tbaa !49
  %19 = load ptr, ptr %5, align 8, !tbaa !37
  %20 = getelementptr inbounds nuw %struct.ppm_source_struct, ptr %19, i32 0, i32 1
  %21 = load ptr, ptr %20, align 8, !tbaa !61
  %22 = load ptr, ptr %5, align 8, !tbaa !37
  %23 = getelementptr inbounds nuw %struct.ppm_source_struct, ptr %22, i32 0, i32 3
  %24 = load i64, ptr %23, align 8, !tbaa !60
  %25 = load ptr, ptr %5, align 8, !tbaa !37
  %26 = getelementptr inbounds nuw %struct.ppm_source_struct, ptr %25, i32 0, i32 0
  %27 = getelementptr inbounds nuw %struct.cjpeg_source_struct, ptr %26, i32 0, i32 3
  %28 = load ptr, ptr %27, align 8, !tbaa !48
  %29 = call i64 @fread(ptr noundef %21, i64 noundef 1, i64 noundef %24, ptr noundef %28)
  %30 = load ptr, ptr %5, align 8, !tbaa !37
  %31 = getelementptr inbounds nuw %struct.ppm_source_struct, ptr %30, i32 0, i32 3
  %32 = load i64, ptr %31, align 8, !tbaa !60
  %33 = icmp eq i64 %29, %32
  br i1 %33, label %45, label %34

34:                                               ; preds = %2
  %35 = load ptr, ptr %3, align 8, !tbaa !4
  %36 = getelementptr inbounds nuw %struct.jpeg_compress_struct, ptr %35, i32 0, i32 0
  %37 = load ptr, ptr %36, align 8, !tbaa !27
  %38 = getelementptr inbounds nuw %struct.jpeg_error_mgr, ptr %37, i32 0, i32 5
  store i32 43, ptr %38, align 8, !tbaa !28
  %39 = load ptr, ptr %3, align 8, !tbaa !4
  %40 = getelementptr inbounds nuw %struct.jpeg_compress_struct, ptr %39, i32 0, i32 0
  %41 = load ptr, ptr %40, align 8, !tbaa !27
  %42 = getelementptr inbounds nuw %struct.jpeg_error_mgr, ptr %41, i32 0, i32 0
  %43 = load ptr, ptr %42, align 8, !tbaa !33
  %44 = load ptr, ptr %3, align 8, !tbaa !4
  call void %43(ptr noundef %44)
  br label %45

45:                                               ; preds = %34, %2
  %46 = load ptr, ptr %5, align 8, !tbaa !37
  %47 = getelementptr inbounds nuw %struct.ppm_source_struct, ptr %46, i32 0, i32 0
  %48 = getelementptr inbounds nuw %struct.cjpeg_source_struct, ptr %47, i32 0, i32 4
  %49 = load ptr, ptr %48, align 8, !tbaa !63
  %50 = getelementptr inbounds ptr, ptr %49, i64 0
  %51 = load ptr, ptr %50, align 8, !tbaa !73
  store ptr %51, ptr %6, align 8, !tbaa !73
  %52 = load ptr, ptr %5, align 8, !tbaa !37
  %53 = getelementptr inbounds nuw %struct.ppm_source_struct, ptr %52, i32 0, i32 1
  %54 = load ptr, ptr %53, align 8, !tbaa !61
  store ptr %54, ptr %7, align 8, !tbaa !73
  %55 = load ptr, ptr %3, align 8, !tbaa !4
  %56 = getelementptr inbounds nuw %struct.jpeg_compress_struct, ptr %55, i32 0, i32 7
  %57 = load i32, ptr %56, align 8, !tbaa !51
  store i32 %57, ptr %9, align 4, !tbaa !49
  br label %58

58:                                               ; preds = %95, %45
  %59 = load i32, ptr %9, align 4, !tbaa !49
  %60 = icmp ugt i32 %59, 0
  br i1 %60, label %61, label %98

61:                                               ; preds = %58
  call void @llvm.lifetime.start.p0(i64 4, ptr %11) #6
  %62 = load ptr, ptr %7, align 8, !tbaa !73
  %63 = getelementptr inbounds nuw i8, ptr %62, i32 1
  store ptr %63, ptr %7, align 8, !tbaa !73
  %64 = load i8, ptr %62, align 1, !tbaa !32
  %65 = zext i8 %64 to i32
  %66 = shl i32 %65, 8
  store i32 %66, ptr %11, align 4, !tbaa !49
  %67 = load ptr, ptr %7, align 8, !tbaa !73
  %68 = getelementptr inbounds nuw i8, ptr %67, i32 1
  store ptr %68, ptr %7, align 8, !tbaa !73
  %69 = load i8, ptr %67, align 1, !tbaa !32
  %70 = zext i8 %69 to i32
  %71 = load i32, ptr %11, align 4, !tbaa !49
  %72 = or i32 %71, %70
  store i32 %72, ptr %11, align 4, !tbaa !49
  %73 = load i32, ptr %11, align 4, !tbaa !49
  %74 = load i32, ptr %10, align 4, !tbaa !49
  %75 = icmp ugt i32 %73, %74
  br i1 %75, label %76, label %87

76:                                               ; preds = %61
  %77 = load ptr, ptr %3, align 8, !tbaa !4
  %78 = getelementptr inbounds nuw %struct.jpeg_compress_struct, ptr %77, i32 0, i32 0
  %79 = load ptr, ptr %78, align 8, !tbaa !27
  %80 = getelementptr inbounds nuw %struct.jpeg_error_mgr, ptr %79, i32 0, i32 5
  store i32 1031, ptr %80, align 8, !tbaa !28
  %81 = load ptr, ptr %3, align 8, !tbaa !4
  %82 = getelementptr inbounds nuw %struct.jpeg_compress_struct, ptr %81, i32 0, i32 0
  %83 = load ptr, ptr %82, align 8, !tbaa !27
  %84 = getelementptr inbounds nuw %struct.jpeg_error_mgr, ptr %83, i32 0, i32 0
  %85 = load ptr, ptr %84, align 8, !tbaa !33
  %86 = load ptr, ptr %3, align 8, !tbaa !4
  call void %85(ptr noundef %86)
  br label %87

87:                                               ; preds = %76, %61
  %88 = load ptr, ptr %8, align 8, !tbaa !73
  %89 = load i32, ptr %11, align 4, !tbaa !49
  %90 = zext i32 %89 to i64
  %91 = getelementptr inbounds nuw i8, ptr %88, i64 %90
  %92 = load i8, ptr %91, align 1, !tbaa !32
  %93 = load ptr, ptr %6, align 8, !tbaa !73
  %94 = getelementptr inbounds nuw i8, ptr %93, i32 1
  store ptr %94, ptr %6, align 8, !tbaa !73
  store i8 %92, ptr %93, align 1, !tbaa !32
  call void @llvm.lifetime.end.p0(i64 4, ptr %11) #6
  br label %95

95:                                               ; preds = %87
  %96 = load i32, ptr %9, align 4, !tbaa !49
  %97 = add i32 %96, -1
  store i32 %97, ptr %9, align 4, !tbaa !49
  br label %58, !llvm.loop !87

98:                                               ; preds = %58
  call void @llvm.lifetime.end.p0(i64 4, ptr %10) #6
  call void @llvm.lifetime.end.p0(i64 4, ptr %9) #6
  call void @llvm.lifetime.end.p0(i64 8, ptr %8) #6
  call void @llvm.lifetime.end.p0(i64 8, ptr %7) #6
  call void @llvm.lifetime.end.p0(i64 8, ptr %6) #6
  call void @llvm.lifetime.end.p0(i64 8, ptr %5) #6
  ret i32 1
}