; Function Attrs: nounwind uwtable
define internal noundef i32 @get_word_gray_row(ptr noundef %0, ptr noundef readonly captures(none) %1) #0 {
  %3 = getelementptr inbounds nuw i8, ptr %1, i64 88
  %4 = load ptr, ptr %3, align 8, !tbaa !59
  %5 = getelementptr inbounds nuw i8, ptr %1, i64 96
  %6 = load i32, ptr %5, align 8, !tbaa !47
  %7 = getelementptr inbounds nuw i8, ptr %1, i64 64
  %8 = load ptr, ptr %7, align 8, !tbaa !54
  %9 = getelementptr inbounds nuw i8, ptr %1, i64 80
  %10 = load i64, ptr %9, align 8, !tbaa !53
  %11 = getelementptr inbounds nuw i8, ptr %1, i64 24
  %12 = load ptr, ptr %11, align 8, !tbaa !43
  %13 = tail call i64 @fread(ptr noundef %8, i64 noundef 1, i64 noundef %10, ptr noundef %12)
  %14 = load i64, ptr %9, align 8, !tbaa !53
  %15 = icmp eq i64 %13, %14
  br i1 %15, label %20, label %16

16:                                               ; preds = %2
  %17 = load ptr, ptr %0, align 8, !tbaa !25
  %18 = getelementptr inbounds nuw i8, ptr %17, i64 40
  store i32 43, ptr %18, align 8, !tbaa !26
  %19 = load ptr, ptr %17, align 8, !tbaa !31
  tail call void %19(ptr noundef nonnull %0) #6
  br label %20

20:                                               ; preds = %16, %2
  %21 = getelementptr inbounds nuw i8, ptr %0, i64 48
  %22 = load i32, ptr %21, align 8, !tbaa !45
  %.not27 = icmp eq i32 %22, 0
  br i1 %.not27, label %._crit_edge, label %.lr.ph.preheader

.lr.ph.preheader:                                 ; preds = %20
  %23 = load ptr, ptr %7, align 8, !tbaa !54
  %24 = getelementptr inbounds nuw i8, ptr %1, i64 32
  %25 = load ptr, ptr %24, align 8, !tbaa !57
  %26 = load ptr, ptr %25, align 8, !tbaa !63
  br label %.lr.ph

.lr.ph:                                           ; preds = %.lr.ph.preheader, %40
  %.030 = phi ptr [ %44, %40 ], [ %26, %.lr.ph.preheader ]
  %.02529 = phi i32 [ %45, %40 ], [ %22, %.lr.ph.preheader ]
  %.02628 = phi ptr [ %31, %40 ], [ %23, %.lr.ph.preheader ]
  %27 = getelementptr inbounds nuw i8, ptr %.02628, i64 1
  %28 = load i8, ptr %.02628, align 1, !tbaa !30
  %29 = zext i8 %28 to i32
  %30 = shl nuw nsw i32 %29, 8
  %31 = getelementptr inbounds nuw i8, ptr %.02628, i64 2
  %32 = load i8, ptr %27, align 1, !tbaa !30
  %33 = zext i8 %32 to i32
  %34 = or disjoint i32 %30, %33
  %35 = icmp ugt i32 %34, %6
  br i1 %35, label %36, label %40

36:                                               ; preds = %.lr.ph
  %37 = load ptr, ptr %0, align 8, !tbaa !25
  %38 = getelementptr inbounds nuw i8, ptr %37, i64 40
  store i32 1031, ptr %38, align 8, !tbaa !26
  %39 = load ptr, ptr %37, align 8, !tbaa !31
  tail call void %39(ptr noundef nonnull %0) #6
  br label %40

40:                                               ; preds = %36, %.lr.ph
  %41 = zext nneg i32 %34 to i64
  %42 = getelementptr inbounds nuw i8, ptr %4, i64 %41
  %43 = load i8, ptr %42, align 1, !tbaa !30
  %44 = getelementptr inbounds nuw i8, ptr %.030, i64 1
  store i8 %43, ptr %.030, align 1, !tbaa !30
  %45 = add i32 %.02529, -1
  %.not = icmp eq i32 %45, 0
  br i1 %.not, label %._crit_edge, label %.lr.ph, !llvm.loop !77

._crit_edge:                                      ; preds = %40, %20
  ret i32 1
}